; Function Attrs: mustprogress nofree norecurse nosync nounwind willreturn memory(read, argmem: readwrite, inaccessiblemem: none) uwtable
define internal range(i32 0, 23) i32 @opt_zero_realloc_ctl(ptr readnone captures(none) %0, ptr readnone captures(none) %1, i64 %2, ptr noundef writeonly captures(address_is_null) %3, ptr noundef captures(address_is_null) %4, ptr noundef readnone captures(address_is_null) %5, i64 noundef %6) #12 {
  %8 = alloca ptr, align 8
  call void @llvm.lifetime.start.p0(i64 8, ptr nonnull %8)
  %9 = icmp ne ptr %5, null
  %10 = icmp ne i64 %6, 0
  %or.cond = or i1 %9, %10
  br i1 %or.cond, label %22, label %11

11:                                               ; preds = %7
  %12 = load i32, ptr @je_opt_zero_realloc_action, align 4, !tbaa !96
  %13 = zext i32 %12 to i64
  %14 = getelementptr inbounds nuw [0 x ptr], ptr @je_zero_realloc_mode_names, i64 0, i64 %13
  %15 = load ptr, ptr %14, align 8, !tbaa !38
  store ptr %15, ptr %8, align 8, !tbaa !38
  %16 = icmp ne ptr %3, null
  %17 = icmp ne ptr %4, null
  %or.cond3 = and i1 %16, %17
  br i1 %or.cond3, label %18, label %22

18:                                               ; preds = %11
  %19 = load i64, ptr %4, align 8, !tbaa !4
  %.not = icmp eq i64 %19, 8
  br i1 %.not, label %21, label %20

20:                                               ; preds = %18
  %spec.select = tail call i64 @llvm.umin.i64(i64 %19, i64 8)
  call void @llvm.memcpy.p0.p0.i64(ptr nonnull align 1 %3, ptr nonnull align 8 %8, i64 %spec.select, i1 false)
  store i64 %spec.select, ptr %4, align 8, !tbaa !4
  br label %22

21:                                               ; preds = %18
  store ptr %15, ptr %3, align 8, !tbaa !38
  br label %22

22:                                               ; preds = %20, %7, %21, %11
  %.018 = phi i32 [ 22, %20 ], [ 1, %7 ], [ 0, %21 ], [ 0, %11 ]
  call void @llvm.lifetime.end.p0(i64 8, ptr nonnull %8)
  ret i32 %.018
}